target datalayout = "e-m:e-p270:32:32-p271:32:32-p272:64:64-i64:64-i128:128-f80:128-n8:16:32:64-S128"
target triple = "x86_64-pc-linux-gnu"

%struct.x509_st = type { ptr, ptr, ptr, i32, i32, ptr, %struct.crypto_ex_data_st, i64, i64, i64, i64, i64, i64, ptr, ptr, ptr, ptr, ptr, ptr, [20 x i8], ptr }
%struct.crypto_ex_data_st = type { ptr }

; Function Attrs: nounwind uwtable
define internal i32 @check_ca(ptr noundef %0) #0 {
  %2 = alloca i32, align 4
  %3 = alloca ptr, align 8
  store ptr %0, ptr %3, align 8, !tbaa !6
  %4 = load ptr, ptr %3, align 8, !tbaa !6
  %5 = getelementptr inbounds nuw %struct.x509_st, ptr %4, i32 0, i32 9
  %6 = load i64, ptr %5, align 8, !tbaa !13
  %7 = and i64 %6, 2
  %8 = icmp ne i64 %7, 0
  br i1 %8, label %9, label %16

9:                                                ; preds = %1
  %10 = load ptr, ptr %3, align 8, !tbaa !6
  %11 = getelementptr inbounds nuw %struct.x509_st, ptr %10, i32 0, i32 10
  %12 = load i64, ptr %11, align 8, !tbaa !58
  %13 = and i64 %12, 4
  %14 = icmp ne i64 %13, 0
  br i1 %14, label %16, label %15

15:                                               ; preds = %9
  store i32 0, ptr %2, align 4
  br label %60

16:                                               ; preds = %9, %1
  %17 = load ptr, ptr %3, align 8, !tbaa !6
  %18 = getelementptr inbounds nuw %struct.x509_st, ptr %17, i32 0, i32 9
  %19 = load i64, ptr %18, align 8, !tbaa !13
  %20 = and i64 %19, 1
  %21 = icmp ne i64 %20, 0
  br i1 %21, label %22, label %30

22:                                               ; preds = %16
  %23 = load ptr, ptr %3, align 8, !tbaa !6
  %24 = getelementptr inbounds nuw %struct.x509_st, ptr %23, i32 0, i32 9
  %25 = load i64, ptr %24, align 8, !tbaa !13
  %26 = and i64 %25, 16
  %27 = icmp ne i64 %26, 0
  br i1 %27, label %28, label %29

28:                                               ; preds = %22
  store i32 1, ptr %2, align 4
  br label %60

29:                                               ; preds = %22
  store i32 0, ptr %2, align 4
  br label %60

30:                                               ; preds = %16
  %31 = load ptr, ptr %3, align 8, !tbaa !6
  %32 = getelementptr inbounds nuw %struct.x509_st, ptr %31, i32 0, i32 9
  %33 = load i64, ptr %32, align 8, !tbaa !13
  %34 = and i64 %33, 8256
  %35 = icmp eq i64 %34, 8256
  br i1 %35, label %36, label %37

36:                                               ; preds = %30
  store i32 3, ptr %2, align 4
  br label %60

37:                                               ; preds = %30
  %38 = load ptr, ptr %3, align 8, !tbaa !6
  %39 = getelementptr inbounds nuw %struct.x509_st, ptr %38, i32 0, i32 9
  %40 = load i64, ptr %39, align 8, !tbaa !13
  %41 = and i64 %40, 2
  %42 = icmp ne i64 %41, 0
  br i1 %42, label %43, label %44

43:                                               ; preds = %37
  store i32 4, ptr %2, align 4
  br label %60

44:                                               ; preds = %37
  %45 = load ptr, ptr %3, align 8, !tbaa !6
  %46 = getelementptr inbounds nuw %struct.x509_st, ptr %45, i32 0, i32 9
  %47 = load i64, ptr %46, align 8, !tbaa !13
  %48 = and i64 %47, 8
  %49 = icmp ne i64 %48, 0
  br i1 %49, label %50, label %57

50:                                               ; preds = %44
  %51 = load ptr, ptr %3, align 8, !tbaa !6
  %52 = getelementptr inbounds nuw %struct.x509_st, ptr %51, i32 0, i32 12
  %53 = load i64, ptr %52, align 8, !tbaa !65
  %54 = and i64 %53, 7
  %55 = icmp ne i64 %54, 0
  br i1 %55, label %56, label %57

56:                                               ; preds = %50
  store i32 5, ptr %2, align 4
  br label %60

57:                                               ; preds = %50, %44
  br label %58

58:                                               ; preds = %57
  br label %59

59:                                               ; preds = %58
  store i32 0, ptr %2, align 4
  br label %60

60:                                               ; preds = %59, %56, %43, %36, %29, %28, %15
  %61 = load i32, ptr %2, align 4
  ret i32 %61
}

; Function Attrs: nounwind uwtable
define internal i32 @check_ssl_ca(ptr noundef %0) #0 {
  %2 = alloca i32, align 4
  %3 = alloca ptr, align 8
  %4 = alloca i32, align 4
  %5 = alloca i32, align 4
  store ptr %0, ptr %3, align 8, !tbaa !6
  call void @llvm.lifetime.start.p0(i64 4, ptr %4) #7
  %6 = load ptr, ptr %3, align 8, !tbaa !6
  %7 = call i32 @check_ca(ptr noundef %6)
  store i32 %7, ptr %4, align 4, !tbaa !11
  %8 = load i32, ptr %4, align 4, !tbaa !11
  %9 = icmp ne i32 %8, 0
  br i1 %9, label %11, label %10

10:                                               ; preds = %1
  store i32 0, ptr %2, align 4
  store i32 1, ptr %5, align 4
  br label %23

11:                                               ; preds = %1
  %12 = load i32, ptr %4, align 4, !tbaa !11
  %13 = icmp ne i32 %12, 5
  br i1 %13, label %20, label %14

14:                                               ; preds = %11
  %15 = load ptr, ptr %3, align 8, !tbaa !6
  %16 = getelementptr inbounds nuw %struct.x509_st, ptr %15, i32 0, i32 12
  %17 = load i64, ptr %16, align 8, !tbaa !65
  %18 = and i64 %17, 4
  %19 = icmp ne i64 %18, 0
  br i1 %19, label %20, label %22

20:                                               ; preds = %14, %11
  %21 = load i32, ptr %4, align 4, !tbaa !11
  store i32 %21, ptr %2, align 4
  store i32 1, ptr %5, align 4
  br label %23

22:                                               ; preds = %14
  store i32 0, ptr %2, align 4
  store i32 1, ptr %5, align 4
  br label %23

23:                                               ; preds = %22, %20, %10
  call void @llvm.lifetime.end.p0(i64 4, ptr %4) #7
  %24 = load i32, ptr %2, align 4
  ret i32 %24
}

; Function Attrs: nounwind uwtable
define internal i32 @check_purpose_ssl_client(ptr noundef %0, ptr noundef %1, i32 noundef %2) #0 {
  %4 = alloca i32, align 4
  %5 = alloca ptr, align 8
  %6 = alloca ptr, align 8
  %7 = alloca i32, align 4
  store ptr %0, ptr %5, align 8, !tbaa !28
  store ptr %1, ptr %6, align 8, !tbaa !6
  store i32 %2, ptr %7, align 4, !tbaa !11
  %8 = load ptr, ptr %6, align 8, !tbaa !6
  %9 = getelementptr inbounds nuw %struct.x509_st, ptr %8, i32 0, i32 9
  %10 = load i64, ptr %9, align 8, !tbaa !13
  %11 = and i64 %10, 4
  %12 = icmp ne i64 %11, 0
  br i1 %12, label %13, label %20

13:                                               ; preds = %3
  %14 = load ptr, ptr %6, align 8, !tbaa !6
  %15 = getelementptr inbounds nuw %struct.x509_st, ptr %14, i32 0, i32 11
  %16 = load i64, ptr %15, align 8, !tbaa !59
  %17 = and i64 %16, 2
  %18 = icmp ne i64 %17, 0
  br i1 %18, label %20, label %19

19:                                               ; preds = %13
  store i32 0, ptr %4, align 4
  br label %53

20:                                               ; preds = %13, %3
  %21 = load i32, ptr %7, align 4, !tbaa !11
  %22 = icmp ne i32 %21, 0
  br i1 %22, label %23, label %26

23:                                               ; preds = %20
  %24 = load ptr, ptr %6, align 8, !tbaa !6
  %25 = call i32 @check_ssl_ca(ptr noundef %24)
  store i32 %25, ptr %4, align 4
  br label %53

26:                                               ; preds = %20
  %27 = load ptr, ptr %6, align 8, !tbaa !6
  %28 = getelementptr inbounds nuw %struct.x509_st, ptr %27, i32 0, i32 9
  %29 = load i64, ptr %28, align 8, !tbaa !13
  %30 = and i64 %29, 2
  %31 = icmp ne i64 %30, 0
  br i1 %31, label %32, label %39

32:                                               ; preds = %26
  %33 = load ptr, ptr %6, align 8, !tbaa !6
  %34 = getelementptr inbounds nuw %struct.x509_st, ptr %33, i32 0, i32 10
  %35 = load i64, ptr %34, align 8, !tbaa !58
  %36 = and i64 %35, 136
  %37 = icmp ne i64 %36, 0
  br i1 %37, label %39, label %38

38:                                               ; preds = %32
  store i32 0, ptr %4, align 4
  br label %53

39:                                               ; preds = %32, %26
  %40 = load ptr, ptr %6, align 8, !tbaa !6
  %41 = getelementptr inbounds nuw %struct.x509_st, ptr %40, i32 0, i32 9
  %42 = load i64, ptr %41, align 8, !tbaa !13
  %43 = and i64 %42, 8
  %44 = icmp ne i64 %43, 0
  br i1 %44, label %45, label %52

45:                                               ; preds = %39
  %46 = load ptr, ptr %6, align 8, !tbaa !6
  %47 = getelementptr inbounds nuw %struct.x509_st, ptr %46, i32 0, i32 12
  %48 = load i64, ptr %47, align 8, !tbaa !65
  %49 = and i64 %48, 128
  %50 = icmp ne i64 %49, 0
  br i1 %50, label %52, label %51

51:                                               ; preds = %45
  store i32 0, ptr %4, align 4
  br label %53

52:                                               ; preds = %45, %39
  store i32 1, ptr %4, align 4
  br label %53

53:                                               ; preds = %52, %51, %38, %23, %19
  %54 = load i32, ptr %4, align 4
  ret i32 %54
}